; Function Attrs: mustprogress uwtable
define dso_local void @_ZN3net14QuicConnection17SetNumOpenStreamsEm(ptr nocapture noundef nonnull readonly align 8 dereferenceable(3372) %this, i64 noundef %num_streams) local_unnamed_addr #0 align 2 {
entry:
  %sent_packet_manager_ = getelementptr inbounds i8, ptr %this, i64 3192
  %0 = load ptr, ptr %sent_packet_manager_, align 8
  %vtable = load ptr, ptr %0, align 8
  %vfn = getelementptr inbounds i8, ptr %vtable, i64 32
  %1 = load ptr, ptr %vfn, align 8
  tail call void %1(ptr noundef nonnull align 8 dereferenceable(8) %0, i64 noundef %num_streams)
  ret void
}